target datalayout = "e-m:e-p270:32:32-p271:32:32-p272:64:64-i64:64-i128:128-f80:128-n8:16:32:64-S128"
target triple = "x86_64-unknown-linux-gnu"

%struct.BlockDriverState = type { i32, i8, i8, i8, i8, i8, ptr, ptr, ptr, %struct.anon, i8, [4096 x i8], [4096 x i8], [4096 x i8], [16 x i8], ptr, [4096 x i8], %struct.BlockLimits, i32, i32, i32, i32, [32 x i8], %union.anon, %union.anon.0, %union.anon.1, i32, [16 x %struct.anon.2], ptr, %struct.anon.3, ptr, ptr, %struct.anon.4, ptr, ptr, i32, ptr, i64, i64, %struct.QemuMutex, %struct.anon.5, %struct.Stat64, i32, i32, i32, i32, i32, i32, %struct.QemuMutex, %struct.anon.6, %struct.CoQueue, i8, i32, i8, %struct.CoMutex, ptr, ptr }
%struct.anon = type { ptr }
%struct.BlockLimits = type { i32, i64, i32, i64, i32, i32, i32, i64, i32, i64, i64, i32, i8, i32, i32, i32, i32, i32, i32, i32 }
%union.anon = type { %struct.QTailQLink }
%struct.QTailQLink = type { ptr, ptr }
%union.anon.0 = type { %struct.QTailQLink }
%union.anon.1 = type { %struct.QTailQLink }
%struct.anon.2 = type { ptr }
%struct.anon.3 = type { ptr }
%struct.anon.4 = type { ptr }
%struct.anon.5 = type { ptr }
%struct.Stat64 = type { i64 }
%struct.QemuMutex = type { %union.pthread_mutex_t, i8 }
%union.pthread_mutex_t = type { %struct.__pthread_mutex_s }
%struct.__pthread_mutex_s = type { i32, i32, i32, i32, i32, i16, i16, %struct.__pthread_internal_list }
%struct.__pthread_internal_list = type { ptr, ptr }
%struct.anon.6 = type { ptr }
%struct.CoQueue = type { %struct.anon.7 }
%struct.anon.7 = type { ptr, ptr }
%struct.CoMutex = type { i32, ptr, %struct.anon.8, %struct.anon.8, i32, i32, ptr }
%struct.anon.8 = type { ptr }
%struct.BDRVQcow2State = type { i32, i32, i32, i32, i32, i32, i32, i32, i32, i32, i32, i32, i32, i32, i64, i64, ptr, ptr, ptr, ptr, i32, %struct.anon.9, ptr, i64, i32, i32, i64, i64, %struct.CoMutex, %struct.Qcow2CryptoHeaderExtension, ptr, ptr, i8, i32, i64, i32, i32, ptr, i32, i64, i64, i32, i32, i8, i32, i32, i64, ptr, ptr, [5 x i8], i8, i32, i8, i64, i64, i64, i64, ptr, %struct.anon.10, %union.anon.11, i8, ptr, ptr, ptr, %struct.CoQueue, i32, ptr, i8, i8, i32 }
%struct.anon.9 = type { ptr }
%struct.Qcow2CryptoHeaderExtension = type { i64, i64 }
%struct.anon.10 = type { ptr }
%union.anon.11 = type { %struct.QTailQLink }

; Function Attrs: nounwind sspstrong uwtable
define internal i64 @cpu_to_be64(i64 noundef %v) #0 {
entry:
  %v.addr = alloca i64, align 8
  store i64 %v, ptr %v.addr, align 8
  %0 = load i64, ptr %v.addr, align 8
  %1 = call i64 @llvm.bswap.i64(i64 %0)
  ret i64 %1
}

; Function Attrs: nounwind sspstrong uwtable
define internal i32 @offset_to_reftable_index(ptr noundef %s, i64 noundef %offset) #0 {
entry:
  %s.addr = alloca ptr, align 8
  %offset.addr = alloca i64, align 8
  store ptr %s, ptr %s.addr, align 8
  store i64 %offset, ptr %offset.addr, align 8
  %0 = load i64, ptr %offset.addr, align 8
  %1 = load ptr, ptr %s.addr, align 8
  %refcount_block_bits = getelementptr inbounds %struct.BDRVQcow2State, ptr %1, i32 0, i32 10
  %2 = load i32, ptr %refcount_block_bits, align 8
  %3 = load ptr, ptr %s.addr, align 8
  %cluster_bits = getelementptr inbounds %struct.BDRVQcow2State, ptr %3, i32 0, i32 0
  %4 = load i32, ptr %cluster_bits, align 8
  %add = add i32 %2, %4
  %sh_prom = zext i32 %add to i64
  %shr = lshr i64 %0, %sh_prom
  %conv = trunc i64 %shr to i32
  ret i32 %conv
}

; Function Attrs: nounwind sspstrong uwtable
define dso_local i32 @qcow2_shrink_reftable(ptr noundef %bs) #0 {
entry:
  %bs.addr = alloca ptr, align 8
  %s = alloca ptr, align 8
  %reftable_tmp = alloca ptr, align 8
  %i = alloca i32, align 4
  %ret = alloca i32, align 4
  %refblock_offs = alloca i64, align 8
  %refblock = alloca ptr, align 8
  %unused_block = alloca i8, align 1
  %block_index = alloca i64, align 8
  %refcount = alloca i64, align 8
  store ptr %bs, ptr %bs.addr, align 8
  %0 = load ptr, ptr %bs.addr, align 8
  %opaque = getelementptr inbounds %struct.BlockDriverState, ptr %0, i32 0, i32 7
  %1 = load ptr, ptr %opaque, align 8
  store ptr %1, ptr %s, align 8
  %2 = load ptr, ptr %s, align 8
  %refcount_table_size = getelementptr inbounds %struct.BDRVQcow2State, ptr %2, i32 0, i32 24
  %3 = load i32, ptr %refcount_table_size, align 8
  %conv = zext i32 %3 to i64
  %mul = mul i64 %conv, 8
  %call = call noalias ptr @g_malloc(i64 noundef %mul) #11
  store ptr %call, ptr %reftable_tmp, align 8
  store i32 0, ptr %i, align 4
  br label %for.cond

for.cond:                                         ; preds = %for.inc, %entry
  %4 = load i32, ptr %i, align 4
  %5 = load ptr, ptr %s, align 8
  %refcount_table_size1 = getelementptr inbounds %struct.BDRVQcow2State, ptr %5, i32 0, i32 24
  %6 = load i32, ptr %refcount_table_size1, align 8
  %cmp = icmp ult i32 %4, %6
  br i1 %cmp, label %for.body, label %for.end

for.body:                                         ; preds = %for.cond
  %7 = load ptr, ptr %s, align 8
  %refcount_table = getelementptr inbounds %struct.BDRVQcow2State, ptr %7, i32 0, i32 22
  %8 = load ptr, ptr %refcount_table, align 8
  %9 = load i32, ptr %i, align 4
  %idxprom = sext i32 %9 to i64
  %arrayidx = getelementptr i64, ptr %8, i64 %idxprom
  %10 = load i64, ptr %arrayidx, align 8
  %and = and i64 %10, -512
  store i64 %and, ptr %refblock_offs, align 8
  %11 = load i64, ptr %refblock_offs, align 8
  %cmp3 = icmp eq i64 %11, 0
  br i1 %cmp3, label %if.then, label %if.end

if.then:                                          ; preds = %for.body
  %12 = load ptr, ptr %reftable_tmp, align 8
  %13 = load i32, ptr %i, align 4
  %idxprom5 = sext i32 %13 to i64
  %arrayidx6 = getelementptr i64, ptr %12, i64 %idxprom5
  store i64 0, ptr %arrayidx6, align 8
  br label %for.inc

if.end:                                           ; preds = %for.body
  %14 = load ptr, ptr %bs.addr, align 8
  %15 = load ptr, ptr %s, align 8
  %refcount_block_cache = getelementptr inbounds %struct.BDRVQcow2State, ptr %15, i32 0, i32 18
  %16 = load ptr, ptr %refcount_block_cache, align 8
  %17 = load i64, ptr %refblock_offs, align 8
  %call7 = call i32 @qcow2_cache_get(ptr noundef %14, ptr noundef %16, i64 noundef %17, ptr noundef %refblock)
  store i32 %call7, ptr %ret, align 4
  %18 = load i32, ptr %ret, align 4
  %cmp8 = icmp slt i32 %18, 0
  br i1 %cmp8, label %if.then10, label %if.end11

if.then10:                                        ; preds = %if.end
  br label %out

if.end11:                                         ; preds = %if.end
  %19 = load i32, ptr %i, align 4
  %20 = load ptr, ptr %s, align 8
  %21 = load i64, ptr %refblock_offs, align 8
  %call12 = call i32 @offset_to_reftable_index(ptr noundef %20, i64 noundef %21)
  %cmp13 = icmp eq i32 %19, %call12
  br i1 %cmp13, label %if.then15, label %if.else

if.then15:                                        ; preds = %if.end11
  %22 = load i64, ptr %refblock_offs, align 8
  %23 = load ptr, ptr %s, align 8
  %cluster_bits = getelementptr inbounds %struct.BDRVQcow2State, ptr %23, i32 0, i32 0
  %24 = load i32, ptr %cluster_bits, align 8
  %sh_prom = zext i32 %24 to i64
  %shr = ashr i64 %22, %sh_prom
  %25 = load ptr, ptr %s, align 8
  %refcount_block_size = getelementptr inbounds %struct.BDRVQcow2State, ptr %25, i32 0, i32 11
  %26 = load i32, ptr %refcount_block_size, align 4
  %sub = sub i32 %26, 1
  %conv16 = sext i32 %sub to i64
  %and17 = and i64 %shr, %conv16
  store i64 %and17, ptr %block_index, align 8
  %27 = load ptr, ptr %s, align 8
  %get_refcount = getelementptr inbounds %struct.BDRVQcow2State, ptr %27, i32 0, i32 47
  %28 = load ptr, ptr %get_refcount, align 8
  %29 = load ptr, ptr %refblock, align 8
  %30 = load i64, ptr %block_index, align 8
  %call18 = call i64 %28(ptr noundef %29, i64 noundef %30)
  store i64 %call18, ptr %refcount, align 8
  %31 = load ptr, ptr %s, align 8
  %set_refcount = getelementptr inbounds %struct.BDRVQcow2State, ptr %31, i32 0, i32 48
  %32 = load ptr, ptr %set_refcount, align 8
  %33 = load ptr, ptr %refblock, align 8
  %34 = load i64, ptr %block_index, align 8
  call void %32(ptr noundef %33, i64 noundef %34, i64 noundef 0)
  %35 = load ptr, ptr %refblock, align 8
  %36 = load ptr, ptr %s, align 8
  %cluster_size = getelementptr inbounds %struct.BDRVQcow2State, ptr %36, i32 0, i32 1
  %37 = load i32, ptr %cluster_size, align 4
  %conv19 = sext i32 %37 to i64
  %call20 = call zeroext i1 @buffer_is_zero(ptr noundef %35, i64 noundef %conv19)
  %frombool = zext i1 %call20 to i8
  store i8 %frombool, ptr %unused_block, align 1
  %38 = load ptr, ptr %s, align 8
  %set_refcount21 = getelementptr inbounds %struct.BDRVQcow2State, ptr %38, i32 0, i32 48
  %39 = load ptr, ptr %set_refcount21, align 8
  %40 = load ptr, ptr %refblock, align 8
  %41 = load i64, ptr %block_index, align 8
  %42 = load i64, ptr %refcount, align 8
  call void %39(ptr noundef %40, i64 noundef %41, i64 noundef %42)
  br label %if.end26

if.else:                                          ; preds = %if.end11
  %43 = load ptr, ptr %refblock, align 8
  %44 = load ptr, ptr %s, align 8
  %cluster_size22 = getelementptr inbounds %struct.BDRVQcow2State, ptr %44, i32 0, i32 1
  %45 = load i32, ptr %cluster_size22, align 4
  %conv23 = sext i32 %45 to i64
  %call24 = call zeroext i1 @buffer_is_zero(ptr noundef %43, i64 noundef %conv23)
  %frombool25 = zext i1 %call24 to i8
  store i8 %frombool25, ptr %unused_block, align 1
  br label %if.end26

if.end26:                                         ; preds = %if.else, %if.then15
  %46 = load ptr, ptr %s, align 8
  %refcount_block_cache27 = getelementptr inbounds %struct.BDRVQcow2State, ptr %46, i32 0, i32 18
  %47 = load ptr, ptr %refcount_block_cache27, align 8
  call void @qcow2_cache_put(ptr noundef %47, ptr noundef %refblock)
  %48 = load i8, ptr %unused_block, align 1
  %tobool = trunc i8 %48 to i1
  br i1 %tobool, label %cond.true, label %cond.false

cond.true:                                        ; preds = %if.end26
  br label %cond.end

cond.false:                                       ; preds = %if.end26
  %49 = load ptr, ptr %s, align 8
  %refcount_table29 = getelementptr inbounds %struct.BDRVQcow2State, ptr %49, i32 0, i32 22
  %50 = load ptr, ptr %refcount_table29, align 8
  %51 = load i32, ptr %i, align 4
  %idxprom30 = sext i32 %51 to i64
  %arrayidx31 = getelementptr i64, ptr %50, i64 %idxprom30
  %52 = load i64, ptr %arrayidx31, align 8
  %call32 = call i64 @cpu_to_be64(i64 noundef %52)
  br label %cond.end

cond.end:                                         ; preds = %cond.false, %cond.true
  %cond = phi i64 [ 0, %cond.true ], [ %call32, %cond.false ]
  %53 = load ptr, ptr %reftable_tmp, align 8
  %54 = load i32, ptr %i, align 4
  %idxprom33 = sext i32 %54 to i64
  %arrayidx34 = getelementptr i64, ptr %53, i64 %idxprom33
  store i64 %cond, ptr %arrayidx34, align 8
  br label %for.inc

for.inc:                                          ; preds = %cond.end, %if.then
  %55 = load i32, ptr %i, align 4
  %inc = add i32 %55, 1
  store i32 %inc, ptr %i, align 4
  br label %for.cond, !llvm.loop !47

for.end:                                          ; preds = %for.cond
  %56 = load ptr, ptr %bs.addr, align 8
  %file = getelementptr inbounds %struct.BlockDriverState, ptr %56, i32 0, i32 31
  %57 = load ptr, ptr %file, align 8
  %58 = load ptr, ptr %s, align 8
  %refcount_table_offset = getelementptr inbounds %struct.BDRVQcow2State, ptr %58, i32 0, i32 23
  %59 = load i64, ptr %refcount_table_offset, align 8
  %60 = load ptr, ptr %s, align 8
  %refcount_table_size35 = getelementptr inbounds %struct.BDRVQcow2State, ptr %60, i32 0, i32 24
  %61 = load i32, ptr %refcount_table_size35, align 8
  %conv36 = zext i32 %61 to i64
  %mul37 = mul i64 %conv36, 8
  %62 = load ptr, ptr %reftable_tmp, align 8
  %call38 = call i32 @bdrv_co_pwrite_sync(ptr noundef %57, i64 noundef %59, i64 noundef %mul37, ptr noundef %62, i32 noundef 0)
  store i32 %call38, ptr %ret, align 4
  store i32 0, ptr %i, align 4
  br label %for.cond39

for.cond39:                                       ; preds = %for.inc65, %for.end
  %63 = load i32, ptr %i, align 4
  %64 = load ptr, ptr %s, align 8
  %refcount_table_size40 = getelementptr inbounds %struct.BDRVQcow2State, ptr %64, i32 0, i32 24
  %65 = load i32, ptr %refcount_table_size40, align 8
  %cmp41 = icmp ult i32 %63, %65
  br i1 %cmp41, label %for.body43, label %for.end67

for.body43:                                       ; preds = %for.cond39
  %66 = load ptr, ptr %s, align 8
  %refcount_table44 = getelementptr inbounds %struct.BDRVQcow2State, ptr %66, i32 0, i32 22
  %67 = load ptr, ptr %refcount_table44, align 8
  %68 = load i32, ptr %i, align 4
  %idxprom45 = sext i32 %68 to i64
  %arrayidx46 = getelementptr i64, ptr %67, i64 %idxprom45
  %69 = load i64, ptr %arrayidx46, align 8
  %tobool47 = icmp ne i64 %69, 0
  br i1 %tobool47, label %land.lhs.true, label %if.end64

land.lhs.true:                                    ; preds = %for.body43
  %70 = load ptr, ptr %reftable_tmp, align 8
  %71 = load i32, ptr %i, align 4
  %idxprom48 = sext i32 %71 to i64
  %arrayidx49 = getelementptr i64, ptr %70, i64 %idxprom48
  %72 = load i64, ptr %arrayidx49, align 8
  %tobool50 = icmp ne i64 %72, 0
  br i1 %tobool50, label %if.end64, label %if.then51

if.then51:                                        ; preds = %land.lhs.true
  %73 = load i32, ptr %ret, align 4
  %cmp52 = icmp eq i32 %73, 0
  br i1 %cmp52, label %if.then54, label %if.end60

if.then54:                                        ; preds = %if.then51
  %74 = load ptr, ptr %bs.addr, align 8
  %75 = load ptr, ptr %s, align 8
  %refcount_table55 = getelementptr inbounds %struct.BDRVQcow2State, ptr %75, i32 0, i32 22
  %76 = load ptr, ptr %refcount_table55, align 8
  %77 = load i32, ptr %i, align 4
  %idxprom56 = sext i32 %77 to i64
  %arrayidx57 = getelementptr i64, ptr %76, i64 %idxprom56
  %78 = load i64, ptr %arrayidx57, align 8
  %and58 = and i64 %78, -512
  %call59 = call i32 @qcow2_discard_refcount_block(ptr noundef %74, i64 noundef %and58)
  store i32 %call59, ptr %ret, align 4
  br label %if.end60

if.end60:                                         ; preds = %if.then54, %if.then51
  %79 = load ptr, ptr %s, align 8
  %refcount_table61 = getelementptr inbounds %struct.BDRVQcow2State, ptr %79, i32 0, i32 22
  %80 = load ptr, ptr %refcount_table61, align 8
  %81 = load i32, ptr %i, align 4
  %idxprom62 = sext i32 %81 to i64
  %arrayidx63 = getelementptr i64, ptr %80, i64 %idxprom62
  store i64 0, ptr %arrayidx63, align 8
  br label %if.end64

if.end64:                                         ; preds = %if.end60, %land.lhs.true, %for.body43
  br label %for.inc65

for.inc65:                                        ; preds = %if.end64
  %82 = load i32, ptr %i, align 4
  %inc66 = add i32 %82, 1
  store i32 %inc66, ptr %i, align 4
  br label %for.cond39, !llvm.loop !48

for.end67:                                        ; preds = %for.cond39
  %83 = load ptr, ptr %s, align 8
  %cache_discards = getelementptr inbounds %struct.BDRVQcow2State, ptr %83, i32 0, i32 60
  %84 = load i8, ptr %cache_discards, align 8
  %tobool68 = trunc i8 %84 to i1
  br i1 %tobool68, label %if.end70, label %if.then69

if.then69:                                        ; preds = %for.end67
  %85 = load ptr, ptr %bs.addr, align 8
  %86 = load i32, ptr %ret, align 4
  call void @qcow2_process_discards(ptr noundef %85, i32 noundef %86)
  br label %if.end70

if.end70:                                         ; preds = %if.then69, %for.end67
  br label %out

out:                                              ; preds = %if.end70, %if.then10
  %87 = load ptr, ptr %reftable_tmp, align 8
  call void @g_free(ptr noundef %87)
  %88 = load i32, ptr %ret, align 4
  ret i32 %88
}