; Function Attrs: nounwind sspstrong uwtable
define dso_local i32 @qcow2_shrink_reftable(ptr noundef %bs) #0 {
entry:
  %refblock = alloca ptr, align 8
  %opaque = getelementptr inbounds nuw i8, ptr %bs, i64 24
  %0 = load ptr, ptr %opaque, align 8
  %refcount_table_size = getelementptr inbounds nuw i8, ptr %0, i64 136
  %1 = load i32, ptr %refcount_table_size, align 8
  %conv = zext i32 %1 to i64
  %mul = shl nuw nsw i64 %conv, 3
  %call = tail call noalias ptr @g_malloc(i64 noundef %mul) #16
  %2 = load i32, ptr %refcount_table_size, align 8
  %cmp53.not = icmp eq i32 %2, 0
  br i1 %cmp53.not, label %for.end, label %for.body.lr.ph

for.body.lr.ph:                                   ; preds = %entry
  %refcount_table = getelementptr inbounds nuw i8, ptr %0, i64 120
  %refcount_block_cache = getelementptr inbounds nuw i8, ptr %0, i64 88
  %3 = getelementptr i8, ptr %0, i64 40
  %cluster_size22 = getelementptr inbounds nuw i8, ptr %0, i64 4
  %refcount_block_size = getelementptr inbounds nuw i8, ptr %0, i64 44
  %get_refcount = getelementptr inbounds nuw i8, ptr %0, i64 328
  %set_refcount = getelementptr inbounds nuw i8, ptr %0, i64 336
  br label %for.body

for.body:                                         ; preds = %for.body.lr.ph, %for.inc
  %4 = phi i32 [ %2, %for.body.lr.ph ], [ %24, %for.inc ]
  %i.054 = phi i32 [ 0, %for.body.lr.ph ], [ %inc, %for.inc ]
  %5 = load ptr, ptr %refcount_table, align 8
  %idxprom = sext i32 %i.054 to i64
  %arrayidx = getelementptr i64, ptr %5, i64 %idxprom
  %6 = load i64, ptr %arrayidx, align 8
  %and = and i64 %6, -512
  %cmp3 = icmp eq i64 %and, 0
  br i1 %cmp3, label %if.then, label %if.end

if.then:                                          ; preds = %for.body
  %arrayidx6 = getelementptr i64, ptr %call, i64 %idxprom
  store i64 0, ptr %arrayidx6, align 8
  br label %for.inc

if.end:                                           ; preds = %for.body
  %7 = load ptr, ptr %refcount_block_cache, align 8
  %call7 = call i32 @qcow2_cache_get(ptr noundef %bs, ptr noundef %7, i64 noundef %and, ptr noundef nonnull %refblock) #17
  %cmp8 = icmp slt i32 %call7, 0
  br i1 %cmp8, label %out, label %if.end11

if.end11:                                         ; preds = %if.end
  %.val = load i32, ptr %0, align 8
  %.val50 = load i32, ptr %3, align 8
  %add.i = add i32 %.val50, %.val
  %sh_prom.i = zext nneg i32 %add.i to i64
  %shr.i = lshr i64 %and, %sh_prom.i
  %conv.i = trunc i64 %shr.i to i32
  %cmp13 = icmp eq i32 %i.054, %conv.i
  br i1 %cmp13, label %if.then15, label %if.end26

if.then15:                                        ; preds = %if.end11
  %sh_prom = zext nneg i32 %.val to i64
  %shr = ashr i64 %and, %sh_prom
  %8 = load i32, ptr %refcount_block_size, align 4
  %sub = add i32 %8, -1
  %conv16 = sext i32 %sub to i64
  %and17 = and i64 %shr, %conv16
  %9 = load ptr, ptr %get_refcount, align 8
  %10 = load ptr, ptr %refblock, align 8
  %call18 = call i64 %9(ptr noundef %10, i64 noundef %and17) #17
  %11 = load ptr, ptr %set_refcount, align 8
  %12 = load ptr, ptr %refblock, align 8
  call void %11(ptr noundef %12, i64 noundef %and17, i64 noundef 0) #17
  %13 = load ptr, ptr %refblock, align 8
  %14 = load i32, ptr %cluster_size22, align 4
  %conv19 = sext i32 %14 to i64
  %call20 = call zeroext i1 @buffer_is_zero(ptr noundef %13, i64 noundef %conv19) #17
  %15 = load ptr, ptr %set_refcount, align 8
  %16 = load ptr, ptr %refblock, align 8
  call void %15(ptr noundef %16, i64 noundef %and17, i64 noundef %call18) #17
  %17 = load ptr, ptr %refcount_block_cache, align 8
  call void @qcow2_cache_put(ptr noundef %17, ptr noundef nonnull %refblock) #17
  br i1 %call20, label %cond.end, label %cond.false

if.end26:                                         ; preds = %if.end11
  %18 = load ptr, ptr %refblock, align 8
  %19 = load i32, ptr %cluster_size22, align 4
  %conv23 = sext i32 %19 to i64
  %call24 = call zeroext i1 @buffer_is_zero(ptr noundef %18, i64 noundef %conv23) #17
  %20 = load ptr, ptr %refcount_block_cache, align 8
  call void @qcow2_cache_put(ptr noundef %20, ptr noundef nonnull %refblock) #17
  br i1 %call24, label %cond.end, label %cond.false

cond.false:                                       ; preds = %if.then15, %if.end26
  %21 = load ptr, ptr %refcount_table, align 8
  %arrayidx31 = getelementptr i64, ptr %21, i64 %idxprom
  %22 = load i64, ptr %arrayidx31, align 8
  %23 = call noundef i64 @llvm.bswap.i64(i64 %22)
  br label %cond.end

cond.end:                                         ; preds = %if.then15, %if.end26, %cond.false
  %cond = phi i64 [ %23, %cond.false ], [ 0, %if.end26 ], [ 0, %if.then15 ]
  %arrayidx34 = getelementptr i64, ptr %call, i64 %idxprom
  store i64 %cond, ptr %arrayidx34, align 8
  %.pre = load i32, ptr %refcount_table_size, align 8
  br label %for.inc

for.inc:                                          ; preds = %cond.end, %if.then
  %24 = phi i32 [ %.pre, %cond.end ], [ %4, %if.then ]
  %inc = add nuw i32 %i.054, 1
  %cmp = icmp ult i32 %inc, %24
  br i1 %cmp, label %for.body, label %for.end.loopexit, !llvm.loop !50

for.end.loopexit:                                 ; preds = %for.inc
  %25 = zext i32 %24 to i64
  %26 = shl nuw nsw i64 %25, 3
  br label %for.end

for.end:                                          ; preds = %for.end.loopexit, %entry
  %.lcssa = phi i64 [ 0, %entry ], [ %26, %for.end.loopexit ]
  %file = getelementptr inbounds nuw i8, ptr %bs, i64 16840
  %27 = load ptr, ptr %file, align 8
  %refcount_table_offset = getelementptr inbounds nuw i8, ptr %0, i64 128
  %28 = load i64, ptr %refcount_table_offset, align 8
  %call38 = call i32 @bdrv_co_pwrite_sync(ptr noundef %27, i64 noundef %28, i64 noundef %.lcssa, ptr noundef %call, i32 noundef 0) #17
  %29 = load i32, ptr %refcount_table_size, align 8
  %cmp4155.not = icmp eq i32 %29, 0
  br i1 %cmp4155.not, label %for.end67, label %for.body43.lr.ph

for.body43.lr.ph:                                 ; preds = %for.end
  %refcount_table44 = getelementptr inbounds nuw i8, ptr %0, i64 120
  br label %for.body43

for.body43:                                       ; preds = %for.body43.lr.ph, %for.inc65
  %30 = phi i32 [ %29, %for.body43.lr.ph ], [ %35, %for.inc65 ]
  %i.157 = phi i32 [ 0, %for.body43.lr.ph ], [ %inc66, %for.inc65 ]
  %ret.156 = phi i32 [ %call38, %for.body43.lr.ph ], [ %ret.3, %for.inc65 ]
  %31 = load ptr, ptr %refcount_table44, align 8
  %idxprom45 = sext i32 %i.157 to i64
  %arrayidx46 = getelementptr i64, ptr %31, i64 %idxprom45
  %32 = load i64, ptr %arrayidx46, align 8
  %tobool47.not = icmp eq i64 %32, 0
  br i1 %tobool47.not, label %for.inc65, label %land.lhs.true

land.lhs.true:                                    ; preds = %for.body43
  %arrayidx49 = getelementptr i64, ptr %call, i64 %idxprom45
  %33 = load i64, ptr %arrayidx49, align 8
  %tobool50.not = icmp eq i64 %33, 0
  br i1 %tobool50.not, label %if.then51, label %for.inc65

if.then51:                                        ; preds = %land.lhs.true
  %cmp52 = icmp eq i32 %ret.156, 0
  br i1 %cmp52, label %if.then54, label %if.end60

if.then54:                                        ; preds = %if.then51
  %and58 = and i64 %32, -512
  %call59 = call i32 @qcow2_discard_refcount_block(ptr noundef %bs, i64 noundef %and58)
  %.pre60 = load ptr, ptr %refcount_table44, align 8
  br label %if.end60

if.end60:                                         ; preds = %if.then54, %if.then51
  %34 = phi ptr [ %.pre60, %if.then54 ], [ %31, %if.then51 ]
  %ret.2 = phi i32 [ %call59, %if.then54 ], [ %ret.156, %if.then51 ]
  %arrayidx63 = getelementptr i64, ptr %34, i64 %idxprom45
  store i64 0, ptr %arrayidx63, align 8
  %.pre61 = load i32, ptr %refcount_table_size, align 8
  br label %for.inc65

for.inc65:                                        ; preds = %for.body43, %land.lhs.true, %if.end60
  %35 = phi i32 [ %30, %land.lhs.true ], [ %.pre61, %if.end60 ], [ %30, %for.body43 ]
  %ret.3 = phi i32 [ %ret.156, %land.lhs.true ], [ %ret.2, %if.end60 ], [ %ret.156, %for.body43 ]
  %inc66 = add nuw i32 %i.157, 1
  %cmp41 = icmp ult i32 %inc66, %35
  br i1 %cmp41, label %for.body43, label %for.end67, !llvm.loop !51

for.end67:                                        ; preds = %for.inc65, %for.end
  %ret.1.lcssa = phi i32 [ %call38, %for.end ], [ %ret.3, %for.inc65 ]
  %cache_discards = getelementptr inbounds nuw i8, ptr %0, i64 424
  %36 = load i8, ptr %cache_discards, align 8
  %tobool68 = trunc i8 %36 to i1
  br i1 %tobool68, label %out, label %if.then69

if.then69:                                        ; preds = %for.end67
  call void @qcow2_process_discards(ptr noundef %bs, i32 noundef %ret.1.lcssa)
  br label %out

out:                                              ; preds = %if.end, %for.end67, %if.then69
  %ret.0 = phi i32 [ %ret.1.lcssa, %for.end67 ], [ %ret.1.lcssa, %if.then69 ], [ %call7, %if.end ]
  call void @g_free(ptr noundef %call) #17
  ret i32 %ret.0
}